(dp0
VEun Jung
p1
V4862
p2
sV\u4e8e\u5927\u5c0f\u59d0AYU
p3
V2708
p4
sV\u4e2d\u6751\u9759\u9999
p5
V40
p6
sV\u6749\u539f\u674f\u7483
p7
V32
p8
sV\u9a6c\u6960\u6960
p9
V3163
p10
sV\u738b\u99a8\u7476yanni
p11
V3561
p12
sV\u6797\u5915
p13
V3162
p14
sV\u9646\u74f7
p15
V4316
p16
sV\u5609\u5b9d\u8d1d\u513f
p17
V2874
p18
sV\u738b\u674e\u4e39\u5c3c
p19
V3226
p20
sV\u9648\u601d\u742a
p21
V3110
p22
sVVian\u7199\u82b8
p23
V3666
p24
sV\u4f55\u4f55\u5915
p25
V3946
p26
sV\u674e\u6069\u4e66
p27
V2761
p28
sV\u6768\u4f9d
p29
V2790
p30
sV\u674e\u4e3d\u838e
p31
V4731
p32
sV\u7eaf\u5c0f\u5e0c
p33
V3771
p34
sV\u4e03\u559c
p35
V2926
p36
sV\u4e54\u96c5\u51b0
p37
V4730
p38
sV\u7d2b\u742aJessie
p39
V3660
p40
sVKitty\u661f\u8fb0
p41
V3566
p42
sV\u7530\u82af\u5a1c
p43
V3944
p44
sV\u5409\u5ca1\u91cc\u5e06
p45
V4764
p46
sV\u9ec4\u53efchristine
p47
V3526
p48
sV\u7eee\u91cc\u5609ula
p49
V4198
p50
sV\u5f20\u4f18
p51
V3945
p52
sV\u738b\u4f9d\u840c
p53
V4732
p54
s.