(dp0
VDGC
p1
V15
p2
sV\u540d\u6a21
p3
V59
p4
sVUgirls
p5
V3766
p6
sVWanibooks
p7
V8
p8
sVBOMB.tv
p9
V13
p10
sVPB
p11
V47
p12
sV\u6027\u611f
p13
V4480
p14
sV\u79c0\u4eba
p15
V2536
p16
sV\u97e9\u56fd\u8f66\u6a21
p17
V119
p18
sVTGod
p19
V4868
p20
sVTuiGirl
p21
V2555
p22
sVWPB-net
p23
V96
p24
sV\u6444\u5f71
p25
V105
p26
s.