(dp0
VDGC
p1
V15
p2
sV\u540d\u6a21
p3
V59
p4
sVUgirls
p5
V3766
p6
sVWanibooks
p7
V8
p8
sVBOMB.tv
p9
V13
p10
sVPB
p11
V47
p12
sV\u79c0\u4eba
p13
V2536
p14
sV\u97e9\u56fd\u8f66\u6a21
p15
V119
p16
sVTGod
p17
V4868
p18
sV\u6444\u5f71
p19
V105
p20
sVWPB-net
p21
V96
p22
sVTuiGirl
p23
V2555
p24
s.